target datalayout = "e-m:e-p270:32:32-p271:32:32-p272:64:64-i64:64-i128:128-f80:128-n8:16:32:64-S128"
target triple = "x86_64-pc-linux-gnu"

%"class.std::__cxx11::basic_string" = type { %"struct.std::__cxx11::basic_string<char>::_Alloc_hider", i64, %union.anon }
%"struct.std::__cxx11::basic_string<char>::_Alloc_hider" = type { ptr }
%union.anon = type { i64, [8 x i8] }
%"class.std::unique_ptr.23" = type { %"struct.std::__uniq_ptr_data.24" }
%"struct.std::__uniq_ptr_data.24" = type { %"class.std::__uniq_ptr_impl.25" }
%"class.std::__uniq_ptr_impl.25" = type { %"class.std::tuple.26" }
%"class.std::tuple.26" = type { %"struct.std::_Tuple_impl.27" }
%"struct.std::_Tuple_impl.27" = type { %"struct.std::_Head_base.30" }
%"struct.std::_Head_base.30" = type { ptr }
%class.cmCursesMainForm = type <{ %class.cmCursesForm, %"class.std::vector.3", %"class.std::unique_ptr", %"class.std::vector", i8, [7 x i8], %"class.std::__cxx11::basic_string", %"class.std::vector", %"class.std::vector", %"class.std::vector.10", i64, i8, i8, [2 x i8], i32, i8, [7 x i8], %"class.std::unique_ptr.15", i32, [4 x i8], %"class.std::unique_ptr.23", %"class.std::__cxx11::basic_string", %"class.std::__cxx11::basic_string", i8, [7 x i8] }>
%class.cmCursesForm = type { ptr, ptr }
%"class.std::vector.3" = type { %"struct.std::_Vector_base.4" }
%"struct.std::_Vector_base.4" = type { %"struct.std::_Vector_base<cmCursesCacheEntryComposite, std::allocator<cmCursesCacheEntryComposite>>::_Vector_impl" }
%"struct.std::_Vector_base<cmCursesCacheEntryComposite, std::allocator<cmCursesCacheEntryComposite>>::_Vector_impl" = type { %"struct.std::_Vector_base<cmCursesCacheEntryComposite, std::allocator<cmCursesCacheEntryComposite>>::_Vector_impl_data" }
%"struct.std::_Vector_base<cmCursesCacheEntryComposite, std::allocator<cmCursesCacheEntryComposite>>::_Vector_impl_data" = type { ptr, ptr, ptr }
%"class.std::unique_ptr" = type { %"struct.std::__uniq_ptr_data" }
%"struct.std::__uniq_ptr_data" = type { %"class.std::__uniq_ptr_impl" }
%"class.std::__uniq_ptr_impl" = type { %"class.std::tuple" }
%"class.std::tuple" = type { %"struct.std::_Tuple_impl" }
%"struct.std::_Tuple_impl" = type { %"struct.std::_Head_base.9" }
%"struct.std::_Head_base.9" = type { ptr }
%"class.std::vector" = type { %"struct.std::_Vector_base" }
%"struct.std::_Vector_base" = type { %"struct.std::_Vector_base<std::__cxx11::basic_string<char>, std::allocator<std::__cxx11::basic_string<char>>>::_Vector_impl" }
%"struct.std::_Vector_base<std::__cxx11::basic_string<char>, std::allocator<std::__cxx11::basic_string<char>>>::_Vector_impl" = type { %"struct.std::_Vector_base<std::__cxx11::basic_string<char>, std::allocator<std::__cxx11::basic_string<char>>>::_Vector_impl_data" }
%"struct.std::_Vector_base<std::__cxx11::basic_string<char>, std::allocator<std::__cxx11::basic_string<char>>>::_Vector_impl_data" = type { ptr, ptr, ptr }
%"class.std::vector.10" = type { %"struct.std::_Vector_base.11" }
%"struct.std::_Vector_base.11" = type { %"struct.std::_Vector_base<fieldnode *, std::allocator<fieldnode *>>::_Vector_impl" }
%"struct.std::_Vector_base<fieldnode *, std::allocator<fieldnode *>>::_Vector_impl" = type { %"struct.std::_Vector_base<fieldnode *, std::allocator<fieldnode *>>::_Vector_impl_data" }
%"struct.std::_Vector_base<fieldnode *, std::allocator<fieldnode *>>::_Vector_impl_data" = type { ptr, ptr, ptr }
%"class.std::unique_ptr.15" = type { %"struct.std::__uniq_ptr_data.16" }
%"struct.std::__uniq_ptr_data.16" = type { %"class.std::__uniq_ptr_impl.17" }
%"class.std::__uniq_ptr_impl.17" = type { %"class.std::tuple.18" }
%"class.std::tuple.18" = type { %"struct.std::_Tuple_impl.19" }
%"struct.std::_Tuple_impl.19" = type { %"struct.std::_Head_base.22" }
%"struct.std::_Head_base.22" = type { ptr }

; Function Attrs: mustprogress nounwind uwtable
define linkonce_odr dso_local noundef nonnull align 8 dereferenceable(8) ptr @_ZNSt10_Head_baseILm0EP5cmakeLb0EE7_M_headERKS2_(ptr noundef nonnull align 8 dereferenceable(8) %0) #5 comdat align 2 {
  %2 = alloca ptr, align 8
  store ptr %0, ptr %2, align 8
  %3 = load ptr, ptr %2, align 8
  %4 = getelementptr inbounds %"struct.std::_Head_base.30", ptr %3, i32 0, i32 0
  ret ptr %4
}

; Function Attrs: mustprogress nounwind uwtable
define linkonce_odr dso_local noundef nonnull align 8 dereferenceable(8) ptr @_ZNSt11_Tuple_implILm0EJP5cmakeSt14default_deleteIS0_EEE7_M_headERKS4_(ptr noundef nonnull align 8 dereferenceable(8) %0) #5 comdat align 2 {
  %2 = alloca ptr, align 8
  store ptr %0, ptr %2, align 8
  %3 = load ptr, ptr %2, align 8
  %4 = call noundef nonnull align 8 dereferenceable(8) ptr @_ZNSt10_Head_baseILm0EP5cmakeLb0EE7_M_headERKS2_(ptr noundef nonnull align 8 dereferenceable(8) %3) #3
  ret ptr %4
}

; Function Attrs: mustprogress nounwind uwtable
define linkonce_odr dso_local noundef nonnull align 8 dereferenceable(8) ptr @_ZSt12__get_helperILm0EP5cmakeJSt14default_deleteIS0_EEERKT0_RKSt11_Tuple_implIXT_EJS4_DpT1_EE(ptr noundef nonnull align 8 dereferenceable(8) %0) #5 comdat {
  %2 = alloca ptr, align 8
  store ptr %0, ptr %2, align 8
  %3 = load ptr, ptr %2, align 8
  %4 = call noundef nonnull align 8 dereferenceable(8) ptr @_ZNSt11_Tuple_implILm0EJP5cmakeSt14default_deleteIS0_EEE7_M_headERKS4_(ptr noundef nonnull align 8 dereferenceable(8) %3) #3
  ret ptr %4
}

; Function Attrs: mustprogress nounwind uwtable
define linkonce_odr dso_local noundef nonnull align 8 dereferenceable(8) ptr @_ZSt3getILm0EJP5cmakeSt14default_deleteIS0_EEERKNSt13tuple_elementIXT_ESt5tupleIJDpT0_EEE4typeERKS8_(ptr noundef nonnull align 8 dereferenceable(8) %0) #5 comdat {
  %2 = alloca ptr, align 8
  store ptr %0, ptr %2, align 8
  %3 = load ptr, ptr %2, align 8
  %4 = call noundef nonnull align 8 dereferenceable(8) ptr @_ZSt12__get_helperILm0EP5cmakeJSt14default_deleteIS0_EEERKT0_RKSt11_Tuple_implIXT_EJS4_DpT1_EE(ptr noundef nonnull align 8 dereferenceable(8) %3) #3
  ret ptr %4
}

; Function Attrs: mustprogress nounwind uwtable
define linkonce_odr dso_local noundef ptr @_ZNKSt15__uniq_ptr_implI5cmakeSt14default_deleteIS0_EE6_M_ptrEv(ptr noundef nonnull align 8 dereferenceable(8) %0) #5 comdat align 2 {
  %2 = alloca ptr, align 8
  store ptr %0, ptr %2, align 8
  %3 = load ptr, ptr %2, align 8
  %4 = getelementptr inbounds %"class.std::__uniq_ptr_impl.25", ptr %3, i32 0, i32 0
  %5 = call noundef nonnull align 8 dereferenceable(8) ptr @_ZSt3getILm0EJP5cmakeSt14default_deleteIS0_EEERKNSt13tuple_elementIXT_ESt5tupleIJDpT0_EEE4typeERKS8_(ptr noundef nonnull align 8 dereferenceable(8) %4) #3
  %6 = load ptr, ptr %5, align 8
  ret ptr %6
}

; Function Attrs: mustprogress nounwind uwtable
define linkonce_odr dso_local noundef ptr @_ZNKSt10unique_ptrI5cmakeSt14default_deleteIS0_EE3getEv(ptr noundef nonnull align 8 dereferenceable(8) %0) #5 comdat align 2 {
  %2 = alloca ptr, align 8
  store ptr %0, ptr %2, align 8
  %3 = load ptr, ptr %2, align 8
  %4 = getelementptr inbounds %"class.std::unique_ptr.23", ptr %3, i32 0, i32 0
  %5 = call noundef ptr @_ZNKSt15__uniq_ptr_implI5cmakeSt14default_deleteIS0_EE6_M_ptrEv(ptr noundef nonnull align 8 dereferenceable(8) %4) #3
  ret ptr %5
}

; Function Attrs: mustprogress uwtable
define dso_local noundef i32 @_ZN16cmCursesMainForm9LoadCacheEPKc(ptr noundef nonnull align 8 dereferenceable(297) %0, ptr noundef %1) #4 align 2 {
  %3 = alloca i32, align 4
  %4 = alloca ptr, align 8
  %5 = alloca ptr, align 8
  %6 = alloca i32, align 4
  store ptr %0, ptr %4, align 8
  store ptr %1, ptr %5, align 8
  %7 = load ptr, ptr %4, align 8
  %8 = getelementptr inbounds %class.cmCursesMainForm, ptr %7, i32 0, i32 20
  %9 = call noundef ptr @_ZNKSt10unique_ptrI5cmakeSt14default_deleteIS0_EEptEv(ptr noundef nonnull align 8 dereferenceable(8) %8) #3
  %10 = call noundef i32 @_ZN5cmake9LoadCacheEv(ptr noundef nonnull align 8 dereferenceable(2216) %9)
  store i32 %10, ptr %6, align 4
  %11 = load i32, ptr %6, align 4
  %12 = icmp slt i32 %11, 0
  br i1 %12, label %13, label %15

13:                                               ; preds = %2
  %14 = load i32, ptr %6, align 4
  store i32 %14, ptr %3, align 4
  br label %27

15:                                               ; preds = %2
  %16 = getelementptr inbounds %class.cmCursesMainForm, ptr %7, i32 0, i32 20
  %17 = call noundef ptr @_ZNKSt10unique_ptrI5cmakeSt14default_deleteIS0_EEptEv(ptr noundef nonnull align 8 dereferenceable(8) %16) #3
  call void @_ZN5cmake22ProcessPresetVariablesEv(ptr noundef nonnull align 8 dereferenceable(2216) %17)
  %18 = getelementptr inbounds %class.cmCursesMainForm, ptr %7, i32 0, i32 20
  %19 = call noundef ptr @_ZNKSt10unique_ptrI5cmakeSt14default_deleteIS0_EEptEv(ptr noundef nonnull align 8 dereferenceable(8) %18) #3
  call void @_ZN5cmake24ProcessPresetEnvironmentEv(ptr noundef nonnull align 8 dereferenceable(2216) %19)
  %20 = getelementptr inbounds %class.cmCursesMainForm, ptr %7, i32 0, i32 20
  %21 = call noundef ptr @_ZNKSt10unique_ptrI5cmakeSt14default_deleteIS0_EEptEv(ptr noundef nonnull align 8 dereferenceable(8) %20) #3
  %22 = getelementptr inbounds %class.cmCursesMainForm, ptr %7, i32 0, i32 7
  %23 = call noundef zeroext i1 @_ZN5cmake12SetCacheArgsERKSt6vectorINSt7__cxx1112basic_stringIcSt11char_traitsIcESaIcEEESaIS6_EE(ptr noundef nonnull align 8 dereferenceable(2216) %21, ptr noundef nonnull align 8 dereferenceable(24) %22)
  %24 = getelementptr inbounds %class.cmCursesMainForm, ptr %7, i32 0, i32 20
  %25 = call noundef ptr @_ZNKSt10unique_ptrI5cmakeSt14default_deleteIS0_EEptEv(ptr noundef nonnull align 8 dereferenceable(8) %24) #3
  call void @_ZN5cmake17PreLoadCMakeFilesEv(ptr noundef nonnull align 8 dereferenceable(2216) %25)
  %26 = load i32, ptr %6, align 4
  store i32 %26, ptr %3, align 4
  br label %27

27:                                               ; preds = %15, %13
  %28 = load i32, ptr %3, align 4
  ret i32 %28
}

; Function Attrs: mustprogress nounwind uwtable
define linkonce_odr dso_local noundef ptr @_ZNKSt10unique_ptrI5cmakeSt14default_deleteIS0_EEptEv(ptr noundef nonnull align 8 dereferenceable(8) %0) #5 comdat align 2 {
  %2 = alloca ptr, align 8
  store ptr %0, ptr %2, align 8
  %3 = load ptr, ptr %2, align 8
  %4 = call noundef ptr @_ZNKSt10unique_ptrI5cmakeSt14default_deleteIS0_EE3getEv(ptr noundef nonnull align 8 dereferenceable(8) %3) #3
  ret ptr %4
}

; Function Attrs: mustprogress uwtable
define dso_local void @_ZN16cmCursesMainForm5WriteEv(ptr noundef nonnull align 8 dereferenceable(297) %0) #4 align 2 {
  %2 = alloca ptr, align 8
  store ptr %0, ptr %2, align 8
  %3 = load ptr, ptr %2, align 8
  call void @_ZN16cmCursesMainForm22FillCacheManagerFromUIEv(ptr noundef nonnull align 8 dereferenceable(297) %3)
  %4 = getelementptr inbounds %class.cmCursesMainForm, ptr %3, i32 0, i32 20
  %5 = call noundef ptr @_ZNKSt10unique_ptrI5cmakeSt14default_deleteIS0_EEptEv(ptr noundef nonnull align 8 dereferenceable(8) %4) #3
  %6 = getelementptr inbounds %class.cmCursesMainForm, ptr %3, i32 0, i32 20
  %7 = call noundef ptr @_ZNKSt10unique_ptrI5cmakeSt14default_deleteIS0_EEptEv(ptr noundef nonnull align 8 dereferenceable(8) %6) #3
  %8 = call noundef nonnull align 8 dereferenceable(32) ptr @_ZNK5cmake22GetHomeOutputDirectoryB5cxx11Ev(ptr noundef nonnull align 8 dereferenceable(2216) %7)
  %9 = call noundef zeroext i1 @_ZN5cmake9SaveCacheERKNSt7__cxx1112basic_stringIcSt11char_traitsIcESaIcEEE(ptr noundef nonnull align 8 dereferenceable(2216) %5, ptr noundef nonnull align 8 dereferenceable(32) %8)
  %10 = call noundef i32 @_ZN16cmCursesMainForm9LoadCacheEPKc(ptr noundef nonnull align 8 dereferenceable(297) %3, ptr noundef null)
  ret void
}