; Function Attrs: mustprogress uwtable
define dso_local void @_ZN16cmCursesMainForm5WriteEv(ptr noundef nonnull align 8 dereferenceable(297) %0) local_unnamed_addr #3 align 2 {
  tail call void @_ZN16cmCursesMainForm22FillCacheManagerFromUIEv(ptr noundef nonnull align 8 dereferenceable(297) %0)
  %2 = getelementptr inbounds i8, ptr %0, i64 224
  %3 = load ptr, ptr %2, align 8
  %4 = tail call noundef nonnull align 8 dereferenceable(32) ptr @_ZNK5cmake22GetHomeOutputDirectoryB5cxx11Ev(ptr noundef nonnull align 8 dereferenceable(2216) %3)
  %5 = tail call noundef zeroext i1 @_ZN5cmake9SaveCacheERKNSt7__cxx1112basic_stringIcSt11char_traitsIcESaIcEEE(ptr noundef nonnull align 8 dereferenceable(2216) %3, ptr noundef nonnull align 8 dereferenceable(32) %4)
  %6 = load ptr, ptr %2, align 8
  %7 = tail call noundef i32 @_ZN5cmake9LoadCacheEv(ptr noundef nonnull align 8 dereferenceable(2216) %6)
  %8 = icmp slt i32 %7, 0
  br i1 %8, label %_ZN16cmCursesMainForm9LoadCacheEPKc.exit, label %9

9:                                                ; preds = %1
  %10 = load ptr, ptr %2, align 8
  tail call void @_ZN5cmake22ProcessPresetVariablesEv(ptr noundef nonnull align 8 dereferenceable(2216) %10)
  %11 = load ptr, ptr %2, align 8
  tail call void @_ZN5cmake24ProcessPresetEnvironmentEv(ptr noundef nonnull align 8 dereferenceable(2216) %11)
  %12 = load ptr, ptr %2, align 8
  %13 = getelementptr inbounds i8, ptr %0, i64 112
  %14 = tail call noundef zeroext i1 @_ZN5cmake12SetCacheArgsERKSt6vectorINSt7__cxx1112basic_stringIcSt11char_traitsIcESaIcEEESaIS6_EE(ptr noundef nonnull align 8 dereferenceable(2216) %12, ptr noundef nonnull align 8 dereferenceable(24) %13)
  %15 = load ptr, ptr %2, align 8
  tail call void @_ZN5cmake17PreLoadCMakeFilesEv(ptr noundef nonnull align 8 dereferenceable(2216) %15)
  br label %_ZN16cmCursesMainForm9LoadCacheEPKc.exit

_ZN16cmCursesMainForm9LoadCacheEPKc.exit:         ; preds = %1, %9
  ret void
}